; Function Attrs: mustprogress nofree norecurse nounwind willreturn memory(readwrite, inaccessiblemem: none) uwtable
define hidden void @je_emap_split_commit(ptr noundef readnone captures(none) %0, ptr noundef readnone captures(none) %1, ptr noundef readonly captures(none) %2, ptr noundef %3, i64 noundef %4, ptr noundef %5, i64 noundef %6) local_unnamed_addr #5 {
  %8 = load ptr, ptr %2, align 8, !tbaa !30
  %9 = getelementptr inbounds nuw i8, ptr %2, i64 8
  %10 = load ptr, ptr %9, align 8, !tbaa !32
  %11 = icmp eq ptr %3, null
  br i1 %11, label %.critedge.i, label %12

12:                                               ; preds = %7
  %.val.i = load i64, ptr %3, align 8, !tbaa !4
  %sh.diff.i = lshr i64 %.val.i, 43
  %13 = and i64 %sh.diff.i, 2
  %14 = lshr i64 %.val.i, 15
  %15 = and i64 %14, 28
  %16 = or disjoint i64 %13, %15
  %17 = or disjoint i64 %16, 66146619527004160
  br label %.critedge.i

.critedge.i:                                      ; preds = %12, %7
  %18 = phi i64 [ %17, %12 ], [ 66146619527004160, %7 ]
  %19 = ptrtoint ptr %3 to i64
  %20 = and i64 %19, 281474976710655
  %21 = or i64 %18, %20
  store atomic i64 %21, ptr %8 release, align 8
  %.not.i = icmp eq ptr %10, null
  br i1 %.not.i, label %emap_rtree_write_acquired.exit, label %22

22:                                               ; preds = %.critedge.i
  store atomic i64 %21, ptr %10 release, align 8
  br label %emap_rtree_write_acquired.exit

emap_rtree_write_acquired.exit:                   ; preds = %.critedge.i, %22
  %23 = getelementptr inbounds nuw i8, ptr %2, i64 16
  %24 = load ptr, ptr %23, align 8, !tbaa !33
  %25 = getelementptr inbounds nuw i8, ptr %2, i64 24
  %26 = load ptr, ptr %25, align 8, !tbaa !34
  %27 = icmp eq ptr %5, null
  br i1 %27, label %.critedge.i12, label %28

28:                                               ; preds = %emap_rtree_write_acquired.exit
  %.val.i10 = load i64, ptr %5, align 8, !tbaa !4
  %sh.diff.i11 = lshr i64 %.val.i10, 43
  %29 = and i64 %sh.diff.i11, 2
  %30 = lshr i64 %.val.i10, 15
  %31 = and i64 %30, 28
  %32 = or disjoint i64 %29, %31
  %33 = or disjoint i64 %32, 66146619527004160
  br label %.critedge.i12

.critedge.i12:                                    ; preds = %28, %emap_rtree_write_acquired.exit
  %34 = phi i64 [ %33, %28 ], [ 66146619527004160, %emap_rtree_write_acquired.exit ]
  %35 = ptrtoint ptr %5 to i64
  %36 = and i64 %35, 281474976710655
  %37 = or i64 %34, %36
  store atomic i64 %37, ptr %24 release, align 8
  %.not.i14 = icmp eq ptr %26, null
  br i1 %.not.i14, label %emap_rtree_write_acquired.exit15, label %38

38:                                               ; preds = %.critedge.i12
  store atomic i64 %37, ptr %26 release, align 8
  br label %emap_rtree_write_acquired.exit15

emap_rtree_write_acquired.exit15:                 ; preds = %.critedge.i12, %38
  ret void
}